target datalayout = "e-m:e-p270:32:32-p271:32:32-p272:64:64-i64:64-i128:128-f80:128-n8:16:32:64-S128"
target triple = "x86_64-pc-linux-gnu"

%struct.H5HF_hdr_t = type { %struct.H5C_cache_entry_t, i32, i32, i8, i8, i8, i8, %struct.H5HF_dtable_t, i64, i64, i32, i64, i64, %struct.H5O_pline_t, i64, i32, i64, i64, i64, i64, i64, i64, i64, i64, i64, i64, i64, i32, ptr, i64, i8, i8, i8, ptr, i32, ptr, %struct.H5HF_block_iter_t, ptr, i64, i8, i8, i64, i8, i8, i8, i8 }
%struct.H5C_cache_entry_t = type { ptr, i64, i64, ptr, i8, ptr, i8, i8, i8, i8, i32, i8, i8, i8, i8, i8, i32, ptr, i32, i32, i32, i32, i32, i8, i8, ptr, ptr, ptr, ptr, ptr, ptr, i8, i32, i8, i64, ptr, i64, i64, i32, i8, i32, i32, i8, ptr, ptr, ptr }
%struct.H5HF_dtable_t = type { %struct.H5HF_dtable_cparam_t, i64, i32, i32, i32, i32, i32, i32, i32, i64, ptr, ptr, ptr, ptr }
%struct.H5HF_dtable_cparam_t = type { i32, i64, i64, i32, i32 }
%struct.H5O_pline_t = type { %struct.H5O_shared_t, i32, i64, i64, ptr }
%struct.H5O_shared_t = type { i32, ptr, i32, %union.anon }
%union.anon = type { %struct.H5O_mesg_loc_t }
%struct.H5O_mesg_loc_t = type { i32, i64 }
%struct.H5HF_block_iter_t = type { i8, ptr }

@.str = private unnamed_addr constant [103 x i8] c"generated/home/dtcxzyw/WorkSpace/Projects/compilers/llvm-opt-benchmark/bench/hdf5/hdf5/src/H5HFspace.c\00", align 1
@H5E_HEAP_g = external global i64, align 8
@__func__.H5HF__space_sect_change_class = private unnamed_addr constant [30 x i8] c"H5HF__space_sect_change_class\00", align 1
@H5E_CANTMODIFY_g = external global i64, align 8
@.str.13 = private unnamed_addr constant [41 x i8] c"can't modify class of free space section\00", align 1

; Function Attrs: nounwind uwtable
define i32 @H5HF__space_sect_change_class(ptr noundef %0, ptr noundef %1, i16 noundef zeroext %2) #0 {
  %4 = alloca ptr, align 8
  %5 = alloca ptr, align 8
  %6 = alloca i16, align 2
  %7 = alloca i32, align 4
  %8 = alloca i8, align 1
  store ptr %0, ptr %4, align 8
  store ptr %1, ptr %5, align 8
  store i16 %2, ptr %6, align 2
  store i32 0, ptr %7, align 4
  store i8 0, ptr %8, align 1
  %9 = load ptr, ptr %4, align 8
  %10 = getelementptr inbounds %struct.H5HF_hdr_t, ptr %9, i32 0, i32 28
  %11 = load ptr, ptr %10, align 8
  %12 = load ptr, ptr %4, align 8
  %13 = getelementptr inbounds %struct.H5HF_hdr_t, ptr %12, i32 0, i32 35
  %14 = load ptr, ptr %13, align 8
  %15 = load ptr, ptr %5, align 8
  %16 = load i16, ptr %6, align 2
  %17 = call i32 @H5FS_sect_change_class(ptr noundef %11, ptr noundef %14, ptr noundef %15, i16 noundef zeroext %16)
  %18 = icmp slt i32 %17, 0
  br i1 %18, label %19, label %34

19:                                               ; preds = %3
  br label %20

20:                                               ; preds = %19
  br label %21

21:                                               ; preds = %20
  br label %22

22:                                               ; preds = %21
  %23 = load i64, ptr @H5E_HEAP_g, align 8
  %24 = load i64, ptr @H5E_CANTMODIFY_g, align 8
  %25 = call i32 (ptr, ptr, i32, i64, i64, ptr, ...) @H5E_printf_stack(ptr noundef @.str, ptr noundef @__func__.H5HF__space_sect_change_class, i32 noundef 549, i64 noundef %23, i64 noundef %24, ptr noundef @.str.13)
  br label %26

26:                                               ; preds = %22
  store i8 1, ptr %8, align 1
  %27 = load i8, ptr %8, align 1
  %28 = trunc i8 %27 to i1
  %29 = zext i1 %28 to i8
  store i8 %29, ptr %8, align 1
  br label %30

30:                                               ; preds = %26
  br label %31

31:                                               ; preds = %30
  store i32 -1, ptr %7, align 4
  br label %35

32:                                               ; No predecessors!
  br label %33

33:                                               ; preds = %32
  br label %34

34:                                               ; preds = %33, %3
  br label %35

35:                                               ; preds = %34, %31
  %36 = load i32, ptr %7, align 4
  ret i32 %36
}