; Function Attrs: nounwind uwtable
define range(i32 -1, 1) i32 @H5HF__space_sect_change_class(ptr nocapture noundef readonly %0, ptr noundef %1, i16 noundef zeroext %2) local_unnamed_addr #0 {
  %4 = getelementptr inbounds i8, ptr %0, i64 600
  %5 = load ptr, ptr %4, align 8
  %6 = getelementptr inbounds i8, ptr %0, i64 640
  %7 = load ptr, ptr %6, align 8
  %8 = tail call i32 @H5FS_sect_change_class(ptr noundef %5, ptr noundef %7, ptr noundef %1, i16 noundef zeroext %2) #4
  %9 = icmp slt i32 %8, 0
  br i1 %9, label %10, label %14

10:                                               ; preds = %3
  %11 = load i64, ptr @H5E_HEAP_g, align 8
  %12 = load i64, ptr @H5E_CANTMODIFY_g, align 8
  %13 = tail call i32 (ptr, ptr, i32, i64, i64, ptr, ...) @H5E_printf_stack(ptr noundef nonnull @.str, ptr noundef nonnull @__func__.H5HF__space_sect_change_class, i32 noundef 549, i64 noundef %11, i64 noundef %12, ptr noundef nonnull @.str.13) #4
  br label %14

14:                                               ; preds = %3, %10
  %.0 = phi i32 [ -1, %10 ], [ 0, %3 ]
  ret i32 %.0
}